; Function Attrs: nofree norecurse nosync nounwind memory(argmem: readwrite) uwtable
define internal void @avg_rv40_qpel16_mc32_c(ptr noundef captures(none) %0, ptr noundef readonly captures(none) %1, i64 noundef %2) #3 {
  %4 = alloca [336 x i8], align 16
  call void @llvm.lifetime.start.p0(i64 336, ptr nonnull %4) #5
  %5 = getelementptr inbounds nuw i8, ptr %4, i64 32
  %.neg = mul i64 %2, -2
  %6 = getelementptr inbounds i8, ptr %1, i64 %.neg
  %7 = trunc i64 %2 to i32
  call fastcc void @put_rv40_qpel8_h_lowpass(ptr noundef nonnull %4, ptr noundef readonly %6, i32 noundef 16, i32 noundef %7, i32 noundef 8, i32 noundef 20, i32 noundef 52, i32 noundef 6)
  %8 = getelementptr inbounds nuw i8, ptr %4, i64 8
  %9 = getelementptr inbounds nuw i8, ptr %6, i64 8
  call fastcc void @put_rv40_qpel8_h_lowpass(ptr noundef nonnull %8, ptr noundef nonnull readonly %9, i32 noundef 16, i32 noundef %7, i32 noundef 8, i32 noundef 20, i32 noundef 52, i32 noundef 6)
  %10 = shl nsw i32 %7, 3
  %11 = sext i32 %10 to i64
  %12 = getelementptr inbounds i8, ptr %6, i64 %11
  %13 = getelementptr inbounds nuw i8, ptr %4, i64 128
  call fastcc void @put_rv40_qpel8_h_lowpass(ptr noundef nonnull %13, ptr noundef readonly %12, i32 noundef 16, i32 noundef %7, i32 noundef 13, i32 noundef 20, i32 noundef 52, i32 noundef 6)
  %14 = getelementptr inbounds nuw i8, ptr %4, i64 136
  %15 = getelementptr inbounds nuw i8, ptr %12, i64 8
  call fastcc void @put_rv40_qpel8_h_lowpass(ptr noundef nonnull %14, ptr noundef nonnull readonly %15, i32 noundef 16, i32 noundef %7, i32 noundef 13, i32 noundef 20, i32 noundef 52, i32 noundef 6)
  call fastcc void @avg_rv40_qpel8_v_lowpass(ptr noundef %0, ptr noundef nonnull readonly %5, i32 noundef %7, i32 noundef 16, i32 noundef 20, i32 noundef 20, i32 noundef 5)
  %16 = getelementptr inbounds nuw i8, ptr %0, i64 8
  %17 = getelementptr inbounds nuw i8, ptr %4, i64 40
  call fastcc void @avg_rv40_qpel8_v_lowpass(ptr noundef nonnull %16, ptr noundef nonnull readonly %17, i32 noundef %7, i32 noundef 16, i32 noundef 20, i32 noundef 20, i32 noundef 5)
  %18 = getelementptr inbounds nuw i8, ptr %4, i64 160
  %19 = getelementptr inbounds i8, ptr %0, i64 %11
  call fastcc void @avg_rv40_qpel8_v_lowpass(ptr noundef %19, ptr noundef nonnull readonly %18, i32 noundef %7, i32 noundef 16, i32 noundef 20, i32 noundef 20, i32 noundef 5)
  %20 = getelementptr inbounds nuw i8, ptr %19, i64 8
  %21 = getelementptr inbounds nuw i8, ptr %4, i64 168
  call fastcc void @avg_rv40_qpel8_v_lowpass(ptr noundef nonnull %20, ptr noundef nonnull readonly %21, i32 noundef %7, i32 noundef 16, i32 noundef 20, i32 noundef 20, i32 noundef 5)
  call void @llvm.lifetime.end.p0(i64 336, ptr nonnull %4) #5
  ret void
}